target datalayout = "e-m:e-p270:32:32-p271:32:32-p272:64:64-i64:64-i128:128-f80:128-n8:16:32:64-S128"
target triple = "x86_64-pc-linux-gnu"

%struct.AVClass = type { ptr, ptr, ptr, i32, i32, i32, i32, ptr, ptr, ptr, ptr, i32 }
%struct.AVOption = type { ptr, ptr, i32, i32, %union.anon, double, double, i32, ptr }
%union.anon = type { i64 }

; Function Attrs: nounwind uwtable
define ptr @av_opt_next(ptr noundef %0, ptr noundef %1) #0 {
  %3 = alloca ptr, align 8
  %4 = alloca ptr, align 8
  %5 = alloca ptr, align 8
  %6 = alloca ptr, align 8
  %7 = alloca i32, align 4
  store ptr %0, ptr %4, align 8, !tbaa !4
  store ptr %1, ptr %5, align 8, !tbaa !8
  call void @llvm.lifetime.start.p0(i64 8, ptr %6) #11
  %8 = load ptr, ptr %4, align 8, !tbaa !4
  %9 = icmp ne ptr %8, null
  br i1 %9, label %11, label %10

10:                                               ; preds = %2
  store ptr null, ptr %3, align 8
  store i32 1, ptr %7, align 4
  br label %49

11:                                               ; preds = %2
  %12 = load ptr, ptr %4, align 8, !tbaa !4
  %13 = load ptr, ptr %12, align 8, !tbaa !10
  store ptr %13, ptr %6, align 8, !tbaa !10
  %14 = load ptr, ptr %5, align 8, !tbaa !8
  %15 = icmp ne ptr %14, null
  br i1 %15, label %36, label %16

16:                                               ; preds = %11
  %17 = load ptr, ptr %6, align 8, !tbaa !10
  %18 = icmp ne ptr %17, null
  br i1 %18, label %19, label %36

19:                                               ; preds = %16
  %20 = load ptr, ptr %6, align 8, !tbaa !10
  %21 = getelementptr inbounds nuw %struct.AVClass, ptr %20, i32 0, i32 2
  %22 = load ptr, ptr %21, align 8, !tbaa !12
  %23 = icmp ne ptr %22, null
  br i1 %23, label %24, label %36

24:                                               ; preds = %19
  %25 = load ptr, ptr %6, align 8, !tbaa !10
  %26 = getelementptr inbounds nuw %struct.AVClass, ptr %25, i32 0, i32 2
  %27 = load ptr, ptr %26, align 8, !tbaa !12
  %28 = getelementptr inbounds %struct.AVOption, ptr %27, i64 0
  %29 = getelementptr inbounds nuw %struct.AVOption, ptr %28, i32 0, i32 0
  %30 = load ptr, ptr %29, align 8, !tbaa !16
  %31 = icmp ne ptr %30, null
  br i1 %31, label %32, label %36

32:                                               ; preds = %24
  %33 = load ptr, ptr %6, align 8, !tbaa !10
  %34 = getelementptr inbounds nuw %struct.AVClass, ptr %33, i32 0, i32 2
  %35 = load ptr, ptr %34, align 8, !tbaa !12
  store ptr %35, ptr %3, align 8
  store i32 1, ptr %7, align 4
  br label %49

36:                                               ; preds = %24, %19, %16, %11
  %37 = load ptr, ptr %5, align 8, !tbaa !8
  %38 = icmp ne ptr %37, null
  br i1 %38, label %39, label %48

39:                                               ; preds = %36
  %40 = load ptr, ptr %5, align 8, !tbaa !8
  %41 = getelementptr inbounds %struct.AVOption, ptr %40, i64 1
  %42 = getelementptr inbounds nuw %struct.AVOption, ptr %41, i32 0, i32 0
  %43 = load ptr, ptr %42, align 8, !tbaa !16
  %44 = icmp ne ptr %43, null
  br i1 %44, label %45, label %48

45:                                               ; preds = %39
  %46 = load ptr, ptr %5, align 8, !tbaa !8
  %47 = getelementptr inbounds nuw %struct.AVOption, ptr %46, i32 1
  store ptr %47, ptr %5, align 8, !tbaa !8
  store ptr %47, ptr %3, align 8
  store i32 1, ptr %7, align 4
  br label %49

48:                                               ; preds = %39, %36
  store ptr null, ptr %3, align 8
  store i32 1, ptr %7, align 4
  br label %49

49:                                               ; preds = %48, %45, %32, %10
  call void @llvm.lifetime.end.p0(i64 8, ptr %6) #11
  %50 = load ptr, ptr %3, align 8
  ret ptr %50
}

; Function Attrs: nounwind uwtable
define ptr @av_opt_child_next(ptr noundef %0, ptr noundef %1) #0 {
  %3 = alloca ptr, align 8
  %4 = alloca ptr, align 8
  %5 = alloca ptr, align 8
  %6 = alloca ptr, align 8
  %7 = alloca i32, align 4
  store ptr %0, ptr %4, align 8, !tbaa !4
  store ptr %1, ptr %5, align 8, !tbaa !4
  call void @llvm.lifetime.start.p0(i64 8, ptr %6) #11
  %8 = load ptr, ptr %4, align 8, !tbaa !4
  %9 = load ptr, ptr %8, align 8, !tbaa !10
  store ptr %9, ptr %6, align 8, !tbaa !10
  %10 = load ptr, ptr %6, align 8, !tbaa !10
  %11 = getelementptr inbounds nuw %struct.AVClass, ptr %10, i32 0, i32 9
  %12 = load ptr, ptr %11, align 8, !tbaa !111
  %13 = icmp ne ptr %12, null
  br i1 %13, label %14, label %21

14:                                               ; preds = %2
  %15 = load ptr, ptr %6, align 8, !tbaa !10
  %16 = getelementptr inbounds nuw %struct.AVClass, ptr %15, i32 0, i32 9
  %17 = load ptr, ptr %16, align 8, !tbaa !111
  %18 = load ptr, ptr %4, align 8, !tbaa !4
  %19 = load ptr, ptr %5, align 8, !tbaa !4
  %20 = call ptr %17(ptr noundef %18, ptr noundef %19)
  store ptr %20, ptr %3, align 8
  store i32 1, ptr %7, align 4
  br label %22

21:                                               ; preds = %2
  store ptr null, ptr %3, align 8
  store i32 1, ptr %7, align 4
  br label %22

22:                                               ; preds = %21, %14
  call void @llvm.lifetime.end.p0(i64 8, ptr %6) #11
  %23 = load ptr, ptr %3, align 8
  ret ptr %23
}

; Function Attrs: nounwind uwtable
define internal i32 @opt_serialize(ptr noundef %0, i32 noundef %1, i32 noundef %2, ptr noundef %3, ptr noundef %4, i8 noundef signext %5, i8 noundef signext %6) #0 {
  %8 = alloca i32, align 4
  %9 = alloca ptr, align 8
  %10 = alloca i32, align 4
  %11 = alloca i32, align 4
  %12 = alloca ptr, align 8
  %13 = alloca ptr, align 8
  %14 = alloca i8, align 1
  %15 = alloca i8, align 1
  %16 = alloca ptr, align 8
  %17 = alloca ptr, align 8
  %18 = alloca ptr, align 8
  %19 = alloca i32, align 4
  %20 = alloca [3 x i8], align 1
  %21 = alloca i32, align 4
  store ptr %0, ptr %9, align 8, !tbaa !4
  store i32 %1, ptr %10, align 4, !tbaa !20
  store i32 %2, ptr %11, align 4, !tbaa !20
  store ptr %3, ptr %12, align 8, !tbaa !30
  store ptr %4, ptr %13, align 8, !tbaa !132
  store i8 %5, ptr %14, align 1, !tbaa !35
  store i8 %6, ptr %15, align 1, !tbaa !35
  call void @llvm.lifetime.start.p0(i64 8, ptr %16) #11
  store ptr null, ptr %16, align 8, !tbaa !8
  call void @llvm.lifetime.start.p0(i64 8, ptr %17) #11
  store ptr null, ptr %17, align 8, !tbaa !4
  call void @llvm.lifetime.start.p0(i64 8, ptr %18) #11
  call void @llvm.lifetime.start.p0(i64 4, ptr %19) #11
  call void @llvm.lifetime.start.p0(i64 3, ptr %20) #11
  %22 = load i8, ptr %15, align 1, !tbaa !35
  store i8 %22, ptr %20, align 1, !tbaa !35
  %23 = getelementptr inbounds i8, ptr %20, i64 1
  %24 = load i8, ptr %14, align 1, !tbaa !35
  store i8 %24, ptr %23, align 1, !tbaa !35
  %25 = getelementptr inbounds i8, ptr %20, i64 2
  store i8 0, ptr %25, align 1, !tbaa !35
  %26 = load i32, ptr %11, align 4, !tbaa !20
  %27 = and i32 %26, 4
  %28 = icmp ne i32 %27, 0
  br i1 %28, label %29, label %50

29:                                               ; preds = %7
  br label %30

30:                                               ; preds = %48, %29
  %31 = load ptr, ptr %9, align 8, !tbaa !4
  %32 = load ptr, ptr %17, align 8, !tbaa !4
  %33 = call ptr @av_opt_child_next(ptr noundef %31, ptr noundef %32)
  store ptr %33, ptr %17, align 8, !tbaa !4
  %34 = icmp ne ptr %33, null
  br i1 %34, label %35, label %49

35:                                               ; preds = %30
  %36 = load ptr, ptr %17, align 8, !tbaa !4
  %37 = load i32, ptr %10, align 4, !tbaa !20
  %38 = load i32, ptr %11, align 4, !tbaa !20
  %39 = load ptr, ptr %12, align 8, !tbaa !30
  %40 = load ptr, ptr %13, align 8, !tbaa !132
  %41 = load i8, ptr %14, align 1, !tbaa !35
  %42 = load i8, ptr %15, align 1, !tbaa !35
  %43 = call i32 @opt_serialize(ptr noundef %36, i32 noundef %37, i32 noundef %38, ptr noundef %39, ptr noundef %40, i8 noundef signext %41, i8 noundef signext %42)
  store i32 %43, ptr %19, align 4, !tbaa !20
  %44 = load i32, ptr %19, align 4, !tbaa !20
  %45 = icmp slt i32 %44, 0
  br i1 %45, label %46, label %48

46:                                               ; preds = %35
  %47 = load i32, ptr %19, align 4, !tbaa !20
  store i32 %47, ptr %8, align 4
  store i32 1, ptr %21, align 4
  br label %126

48:                                               ; preds = %35
  br label %30, !llvm.loop !134

49:                                               ; preds = %30
  br label %50

50:                                               ; preds = %49, %7
  br label %51

51:                                               ; preds = %124, %92, %81, %72, %61, %50
  %52 = load ptr, ptr %9, align 8, !tbaa !4
  %53 = load ptr, ptr %16, align 8, !tbaa !8
  %54 = call ptr @av_opt_next(ptr noundef %52, ptr noundef %53)
  store ptr %54, ptr %16, align 8, !tbaa !8
  %55 = icmp ne ptr %54, null
  br i1 %55, label %56, label %125

56:                                               ; preds = %51
  %57 = load ptr, ptr %16, align 8, !tbaa !8
  %58 = getelementptr inbounds nuw %struct.AVOption, ptr %57, i32 0, i32 3
  %59 = load i32, ptr %58, align 4, !tbaa !21
  %60 = icmp eq i32 %59, 11
  br i1 %60, label %61, label %62

61:                                               ; preds = %56
  br label %51, !llvm.loop !135

62:                                               ; preds = %56
  %63 = load i32, ptr %11, align 4, !tbaa !20
  %64 = and i32 %63, 2
  %65 = icmp ne i32 %64, 0
  br i1 %65, label %66, label %73

66:                                               ; preds = %62
  %67 = load ptr, ptr %16, align 8, !tbaa !8
  %68 = getelementptr inbounds nuw %struct.AVOption, ptr %67, i32 0, i32 7
  %69 = load i32, ptr %68, align 8, !tbaa !26
  %70 = load i32, ptr %10, align 4, !tbaa !20
  %71 = icmp ne i32 %69, %70
  br i1 %71, label %72, label %73

72:                                               ; preds = %66
  br label %51, !llvm.loop !135

73:                                               ; preds = %66, %62
  %74 = load ptr, ptr %16, align 8, !tbaa !8
  %75 = getelementptr inbounds nuw %struct.AVOption, ptr %74, i32 0, i32 7
  %76 = load i32, ptr %75, align 8, !tbaa !26
  %77 = load i32, ptr %10, align 4, !tbaa !20
  %78 = and i32 %76, %77
  %79 = load i32, ptr %10, align 4, !tbaa !20
  %80 = icmp ne i32 %78, %79
  br i1 %80, label %81, label %82

81:                                               ; preds = %73
  br label %51, !llvm.loop !135

82:                                               ; preds = %73
  br label %83

83:                                               ; preds = %82
  %84 = load i32, ptr %11, align 4, !tbaa !20
  %85 = and i32 %84, 1
  %86 = icmp ne i32 %85, 0
  br i1 %86, label %87, label %93

87:                                               ; preds = %83
  %88 = load ptr, ptr %9, align 8, !tbaa !4
  %89 = load ptr, ptr %16, align 8, !tbaa !8
  %90 = call i32 @av_opt_is_set_to_default(ptr noundef %88, ptr noundef %89)
  %91 = icmp sgt i32 %90, 0
  br i1 %91, label %92, label %93

92:                                               ; preds = %87
  br label %51, !llvm.loop !135

93:                                               ; preds = %87, %83
  %94 = load ptr, ptr %9, align 8, !tbaa !4
  %95 = load ptr, ptr %16, align 8, !tbaa !8
  %96 = getelementptr inbounds nuw %struct.AVOption, ptr %95, i32 0, i32 0
  %97 = load ptr, ptr %96, align 8, !tbaa !16
  %98 = call i32 @av_opt_get(ptr noundef %94, ptr noundef %97, i32 noundef 0, ptr noundef %18)
  store i32 %98, ptr %19, align 4, !tbaa !20
  %99 = icmp slt i32 %98, 0
  br i1 %99, label %100, label %104

100:                                              ; preds = %93
  %101 = load ptr, ptr %13, align 8, !tbaa !132
  %102 = call i32 @av_bprint_finalize(ptr noundef %101, ptr noundef null)
  %103 = load i32, ptr %19, align 4, !tbaa !20
  store i32 %103, ptr %8, align 4
  store i32 1, ptr %21, align 4
  br label %126

104:                                              ; preds = %93
  %105 = load ptr, ptr %18, align 8, !tbaa !19
  %106 = icmp ne ptr %105, null
  br i1 %106, label %107, label %124

107:                                              ; preds = %104
  %108 = load ptr, ptr %12, align 8, !tbaa !30
  %109 = load i32, ptr %108, align 4, !tbaa !20
  %110 = add nsw i32 %109, 1
  store i32 %110, ptr %108, align 4, !tbaa !20
  %111 = icmp ne i32 %109, 0
  br i1 %111, label %112, label %114

112:                                              ; preds = %107
  %113 = load ptr, ptr %13, align 8, !tbaa !132
  call void @av_bprint_append_data(ptr noundef %113, ptr noundef %15, i32 noundef 1)
  br label %114

114:                                              ; preds = %112, %107
  %115 = load ptr, ptr %13, align 8, !tbaa !132
  %116 = load ptr, ptr %16, align 8, !tbaa !8
  %117 = getelementptr inbounds nuw %struct.AVOption, ptr %116, i32 0, i32 0
  %118 = load ptr, ptr %117, align 8, !tbaa !16
  %119 = getelementptr inbounds [3 x i8], ptr %20, i64 0, i64 0
  call void @av_bprint_escape(ptr noundef %115, ptr noundef %118, ptr noundef %119, i32 noundef 1, i32 noundef 0)
  %120 = load ptr, ptr %13, align 8, !tbaa !132
  call void @av_bprint_append_data(ptr noundef %120, ptr noundef %14, i32 noundef 1)
  %121 = load ptr, ptr %13, align 8, !tbaa !132
  %122 = load ptr, ptr %18, align 8, !tbaa !19
  %123 = getelementptr inbounds [3 x i8], ptr %20, i64 0, i64 0
  call void @av_bprint_escape(ptr noundef %121, ptr noundef %122, ptr noundef %123, i32 noundef 1, i32 noundef 0)
  call void @av_freep(ptr noundef %18)
  br label %124

124:                                              ; preds = %114, %104
  br label %51, !llvm.loop !135

125:                                              ; preds = %51
  store i32 0, ptr %8, align 4
  store i32 1, ptr %21, align 4
  br label %126

126:                                              ; preds = %125, %100, %46
  call void @llvm.lifetime.end.p0(i64 3, ptr %20) #11
  call void @llvm.lifetime.end.p0(i64 4, ptr %19) #11
  call void @llvm.lifetime.end.p0(i64 8, ptr %18) #11
  call void @llvm.lifetime.end.p0(i64 8, ptr %17) #11
  call void @llvm.lifetime.end.p0(i64 8, ptr %16) #11
  %127 = load i32, ptr %8, align 4
  ret i32 %127
}