; Function Attrs: nounwind uwtable
define internal fastcc range(i32 -2147483648, 1) i32 @opt_serialize(ptr noundef nonnull %0, i32 noundef %1, i32 noundef %2, ptr noundef nonnull captures(none) %3, ptr noundef nonnull %4, i8 noundef signext %5, i8 noundef signext %6) unnamed_addr #2 {
  %8 = alloca i8, align 1
  %9 = alloca i8, align 1
  %10 = alloca ptr, align 8
  %11 = alloca [3 x i8], align 1
  store i8 %5, ptr %8, align 1, !tbaa !29
  store i8 %6, ptr %9, align 1, !tbaa !29
  call void @llvm.lifetime.start.p0(i64 8, ptr nonnull %10) #18
  call void @llvm.lifetime.start.p0(i64 3, ptr nonnull %11) #18
  store i8 %6, ptr %11, align 1, !tbaa !29
  %12 = getelementptr inbounds nuw i8, ptr %11, i64 1
  store i8 %5, ptr %12, align 1, !tbaa !29
  %13 = getelementptr inbounds nuw i8, ptr %11, i64 2
  store i8 0, ptr %13, align 1, !tbaa !29
  %14 = and i32 %2, 4
  %.not = icmp eq i32 %14, 0
  br i1 %.not, label %av_opt_child_next.exit.thread, label %.preheader

.preheader:                                       ; preds = %7, %19
  %.0 = phi ptr [ %18, %19 ], [ null, %7 ]
  %15 = load ptr, ptr %0, align 8, !tbaa !4
  %16 = getelementptr inbounds nuw i8, ptr %15, i64 56
  %17 = load ptr, ptr %16, align 8, !tbaa !61
  %.not.i = icmp eq ptr %17, null
  br i1 %.not.i, label %av_opt_child_next.exit.thread, label %av_opt_child_next.exit

av_opt_child_next.exit:                           ; preds = %.preheader
  %18 = tail call ptr %17(ptr noundef nonnull %0, ptr noundef %.0) #18
  %.not38 = icmp eq ptr %18, null
  br i1 %.not38, label %av_opt_child_next.exit.thread, label %19

19:                                               ; preds = %av_opt_child_next.exit
  %20 = tail call fastcc i32 @opt_serialize(ptr noundef %18, i32 noundef %1, i32 noundef %2, ptr noundef %3, ptr noundef %4, i8 noundef signext %5, i8 noundef signext %6)
  %21 = icmp slt i32 %20, 0
  br i1 %21, label %av_opt_next.exit, label %.preheader, !llvm.loop !112

av_opt_child_next.exit.thread:                    ; preds = %.preheader, %av_opt_child_next.exit, %7
  %22 = and i32 %2, 2
  %.not40 = icmp eq i32 %22, 0
  %23 = and i32 %2, 1
  %.not43 = icmp eq i32 %23, 0
  br label %.backedge

.backedge:                                        ; preds = %.backedge.backedge, %av_opt_child_next.exit.thread
  %.032 = phi ptr [ null, %av_opt_child_next.exit.thread ], [ %.0.i47.ph, %.backedge.backedge ]
  %24 = load ptr, ptr %0, align 8, !tbaa !4
  %25 = icmp eq ptr %.032, null
  %26 = icmp ne ptr %24, null
  %or.cond.i = select i1 %25, i1 %26, i1 false
  br i1 %or.cond.i, label %27, label %32

27:                                               ; preds = %.backedge
  %28 = getelementptr inbounds nuw i8, ptr %24, i64 16
  %29 = load ptr, ptr %28, align 8, !tbaa !9
  %.not16.i = icmp eq ptr %29, null
  br i1 %.not16.i, label %av_opt_next.exit, label %30

30:                                               ; preds = %27
  %31 = load ptr, ptr %29, align 8, !tbaa !14
  %.not17.i = icmp eq ptr %31, null
  br i1 %.not17.i, label %av_opt_next.exit, label %36

32:                                               ; preds = %.backedge
  br i1 %25, label %av_opt_next.exit, label %33

33:                                               ; preds = %32
  %34 = getelementptr inbounds nuw i8, ptr %.032, i64 64
  %35 = load ptr, ptr %34, align 8, !tbaa !14
  %.not19.i = icmp eq ptr %35, null
  br i1 %.not19.i, label %av_opt_next.exit, label %36

36:                                               ; preds = %30, %33
  %37 = phi ptr [ %35, %33 ], [ %31, %30 ]
  %.0.i47.ph = phi ptr [ %34, %33 ], [ %29, %30 ]
  %38 = getelementptr inbounds nuw i8, ptr %.0.i47.ph, i64 20
  %39 = load i32, ptr %38, align 4, !tbaa !18
  %40 = icmp eq i32 %39, 11
  br i1 %40, label %.backedge.backedge, label %41

41:                                               ; preds = %36
  %.phi.trans.insert = getelementptr inbounds nuw i8, ptr %.0.i47.ph, i64 48
  %.pre = load i32, ptr %.phi.trans.insert, align 8, !tbaa !21
  br i1 %.not40, label %._crit_edge, label %42

42:                                               ; preds = %41
  %.not41 = icmp eq i32 %.pre, %1
  br i1 %.not41, label %._crit_edge, label %.backedge.backedge

._crit_edge:                                      ; preds = %41, %42
  %43 = phi i32 [ %1, %42 ], [ %.pre, %41 ]
  %44 = and i32 %43, %1
  %.not42 = icmp eq i32 %44, %1
  br i1 %.not42, label %45, label %.backedge.backedge

45:                                               ; preds = %._crit_edge
  br i1 %.not43, label %49, label %46

46:                                               ; preds = %45
  %47 = call i32 @av_opt_is_set_to_default(ptr noundef nonnull %0, ptr noundef nonnull %.0.i47.ph)
  %48 = icmp sgt i32 %47, 0
  br i1 %48, label %.backedge.backedge, label %._crit_edge57

._crit_edge57:                                    ; preds = %46
  %.pre58 = load ptr, ptr %.0.i47.ph, align 8, !tbaa !14
  br label %49

49:                                               ; preds = %._crit_edge57, %45
  %50 = phi ptr [ %.pre58, %._crit_edge57 ], [ %37, %45 ]
  %51 = call i32 @av_opt_get(ptr noundef nonnull %0, ptr noundef %50, i32 noundef 0, ptr noundef nonnull %10)
  %52 = icmp slt i32 %51, 0
  br i1 %52, label %53, label %55

53:                                               ; preds = %49
  %54 = call i32 @av_bprint_finalize(ptr noundef nonnull %4, ptr noundef null) #18
  br label %av_opt_next.exit

55:                                               ; preds = %49
  %56 = load ptr, ptr %10, align 8, !tbaa !33
  %.not44 = icmp eq ptr %56, null
  br i1 %.not44, label %.backedge.backedge, label %57

.backedge.backedge:                               ; preds = %55, %61, %36, %42, %._crit_edge, %46
  br label %.backedge, !llvm.loop !113

57:                                               ; preds = %55
  %58 = load i32, ptr %3, align 4, !tbaa !26
  %59 = add nsw i32 %58, 1
  store i32 %59, ptr %3, align 4, !tbaa !26
  %.not45 = icmp eq i32 %58, 0
  br i1 %.not45, label %61, label %60

60:                                               ; preds = %57
  call void @av_bprint_append_data(ptr noundef nonnull %4, ptr noundef nonnull %9, i32 noundef 1) #18
  br label %61

61:                                               ; preds = %60, %57
  %62 = load ptr, ptr %.0.i47.ph, align 8, !tbaa !14
  call void @av_bprint_escape(ptr noundef nonnull %4, ptr noundef %62, ptr noundef nonnull %11, i32 noundef 1, i32 noundef 0) #18
  call void @av_bprint_append_data(ptr noundef nonnull %4, ptr noundef nonnull %8, i32 noundef 1) #18
  %63 = load ptr, ptr %10, align 8, !tbaa !33
  call void @av_bprint_escape(ptr noundef nonnull %4, ptr noundef %63, ptr noundef nonnull %11, i32 noundef 1, i32 noundef 0) #18
  call void @av_freep(ptr noundef nonnull %10) #18
  br label %.backedge.backedge

av_opt_next.exit:                                 ; preds = %19, %33, %32, %30, %27, %53
  %.033 = phi i32 [ %51, %53 ], [ 0, %27 ], [ 0, %30 ], [ 0, %32 ], [ 0, %33 ], [ %20, %19 ]
  call void @llvm.lifetime.end.p0(i64 3, ptr nonnull %11) #18
  call void @llvm.lifetime.end.p0(i64 8, ptr nonnull %10) #18
  ret i32 %.033
}